target datalayout = "e-m:e-p270:32:32-p271:32:32-p272:64:64-i64:64-i128:128-f80:128-n8:16:32:64-S128"
target triple = "x86_64-pc-linux-gnu"

%struct.redisServer = type { i32, i64, ptr, ptr, ptr, i32, i32, i32, i32, i32, ptr, ptr, ptr, ptr, ptr, i32, i32, i32, i32, i64, i32, i32, i32, i32, ptr, i32, i32, [41 x i8], i32, i64, i32, i32, i32, ptr, ptr, i32, i32, i64, ptr, ptr, ptr, ptr, [2 x i32], i32, i32, i32, i32, i32, i32, [16 x ptr], i32, ptr, ptr, i32, [8 x %struct.connListener], i32, %struct.connListener, ptr, ptr, ptr, ptr, ptr, ptr, ptr, ptr, ptr, ptr, i32, ptr, i32, ptr, [3 x %struct.pause_event], [256 x i8], ptr, i64, i32, i32, [128 x i32], i32, i32, i64, i32, i32, i32, i32, i32, i64, i64, i64, i64, i64, i64, i64, i64, i64, i64, double, i64, i64, i64, i64, i64, i64, i64, i64, i64, i64, i64, i64, i64, i64, i64, i64, i64, i64, i64, i64, i64, double, i64, i64, i64, i64, i64, ptr, i64, i64, i64, %struct.malloc_stats, i64, i64, i64, i64, i64, i64, i64, i64, i64, i64, i64, i64, double, [4 x i64], i64, i64, i64, i64, [128 x i64], [128 x i64], i64, i64, [7 x %struct.anon], i64, i64, i64, i64, i64, i64, [4 x %struct.durationStats], i32, i32, i32, i32, i32, i32, i32, i32, i32, i32, i32, i32, i64, i32, i32, i32, i32, i64, i64, i32, i32, i32, i32, i32, ptr, [3 x %struct.clientBufferLimitsConfig], i32, i32, i32, ptr, i32, i32, i32, i32, i32, i32, ptr, ptr, i32, i32, i64, i64, i64, i64, i64, i32, i32, ptr, i32, i32, i64, i64, i64, i64, i64, i32, i32, i64, i32, i32, i32, i32, i32, i32, i32, i32, ptr, i32, i64, i64, i64, i64, i32, ptr, i32, ptr, i32, i32, i32, i64, i64, i64, i64, i32, i32, i32, i32, i32, i32, ptr, i32, i32, ptr, i32, i32, i32, [2 x i32], i32, %struct.redisOpArray, i32, ptr, i32, ptr, i32, i32, i32, i32, i32, i32, i32, [41 x i8], [41 x i8], i64, i64, i64, i64, i32, i32, ptr, i64, i64, %struct.replDataBuf, i64, i64, i32, i32, i32, i32, i32, i32, i32, i32, i32, i64, ptr, i64, ptr, ptr, ptr, i32, i32, ptr, ptr, i32, i32, i32, i64, i64, i64, i64, ptr, ptr, i32, ptr, i64, i32, i32, i32, i64, i32, i32, i32, i32, ptr, i32, i32, [41 x i8], i64, i32, ptr, i32, i32, i64, i64, i32, i32, i32, i32, i32, i64, [3 x i32], i32, i32, i32, [10 x i32], ptr, ptr, i32, i64, ptr, ptr, i32, i32, i32, i32, i64, i64, i64, i64, i64, i64, i64, i64, i64, i64, i32, i32, i64, i64, i32, i64, i64, i64, i64, i64, ptr, ptr, i32, ptr, i32, i32, i32, i32, i64, i64, ptr, ptr, i32, i32, i32, i32, i32, ptr, ptr, ptr, i32, i32, i32, i32, i32, i32, i32, i64, i32, i32, i64, i32, i32, i32, i32, i32, i32, i32, i64, ptr, ptr, i64, ptr, i32, %struct.aclInfo, i32, i64, i32, i32, i32, %struct.redisTLSContextConfig, ptr, ptr, ptr, ptr, ptr, i64, i32, ptr, i32, i32, i32, i64, i32, ptr }
%struct.connListener = type { [16 x i32], i32, ptr, i32, i32, ptr, ptr }
%struct.pause_event = type { i32, i64 }
%struct.malloc_stats = type { i64, i64, i64, i64, i64, i64, i64, i64, i64, i64, i64 }
%struct.anon = type { i64, i64, [16 x i64], i32 }
%struct.durationStats = type { i64, i64, i64 }
%struct.clientBufferLimitsConfig = type { i64, i64, i64 }
%struct.redisOpArray = type { ptr, i32, i32 }
%struct.replDataBuf = type { ptr, i64, i64, i64, i64 }
%struct.aclInfo = type { i64, i64, i64, i64 }
%struct.redisTLSContextConfig = type { ptr, ptr, ptr, ptr, ptr, ptr, ptr, ptr, ptr, ptr, ptr, ptr, i32, i32, i32, i32 }
%struct.redisDb = type { ptr, ptr, ptr, ptr, ptr, ptr, ptr, i32, i64, i64, ptr }
%struct.kvstoreDictMetadata = type { [5 x [48 x i64]] }
%struct.kvstoreMetadata = type { [5 x [48 x i64]] }
%struct.redisObject = type { i32, i32, ptr }
%struct.client = type { i64, i64, ptr, i8, i8, i8, i8, i32, ptr, ptr, ptr, ptr, ptr, i64, i64, i32, ptr, i32, i32, ptr, i64, ptr, ptr, ptr, ptr, ptr, i32, i32, i64, ptr, i64, ptr, i64, i64, i64, i32, ptr, i64, i64, i32, i32, i32, i32, i64, i64, ptr, i64, i64, i64, i64, i64, i64, i64, i64, [41 x i8], i32, ptr, i32, i32, i64, %struct.multiState, %struct.blockingState, i64, ptr, ptr, ptr, ptr, ptr, ptr, ptr, ptr, ptr, ptr, ptr, ptr, ptr, ptr, i64, ptr, i64, i32, ptr, ptr, ptr, i64, %struct.listNode, i64, i64, i32, i64, ptr }
%struct.multiState = type { ptr, i32, i32, i32, i64, i32 }
%struct.blockingState = type { i32, i64, i32, ptr, i32, i32, i64, ptr, ptr, i64 }
%struct.listNode = type { ptr, ptr, ptr }

@server = external global %struct.redisServer, align 8
@.str.2 = private unnamed_addr constant [5 x i8] c"db.c\00", align 1
@.str.73 = private unnamed_addr constant [11 x i8] c"de != NULL\00", align 1
@.str.74 = private unnamed_addr constant [4 x i8] c"new\00", align 1

; Function Attrs: inlinehint nounwind uwtable
define internal i32 @log2ceil(i64 noundef %0) #4 {
  %2 = alloca i64, align 8
  store i64 %0, ptr %2, align 8, !tbaa !10
  %3 = load i64, ptr %2, align 8, !tbaa !10
  %4 = call i64 @llvm.ctlz.i64(i64 %3, i1 true)
  %5 = trunc i64 %4 to i32
  %6 = sub nsw i32 63, %5
  ret i32 %6
}

; Function Attrs: nounwind uwtable
define dso_local void @updateKeysizesHist(ptr noundef %0, i32 noundef %1, i32 noundef %2, i64 noundef %3, i64 noundef %4) #0 {
  %6 = alloca ptr, align 8
  %7 = alloca i32, align 4
  %8 = alloca i32, align 4
  %9 = alloca i64, align 8
  %10 = alloca i64, align 8
  %11 = alloca ptr, align 8
  %12 = alloca ptr, align 8
  %13 = alloca i32, align 4
  %14 = alloca i32, align 4
  store ptr %0, ptr %6, align 8, !tbaa !12
  store i32 %1, ptr %7, align 4, !tbaa !14
  store i32 %2, ptr %8, align 4, !tbaa !14
  store i64 %3, ptr %9, align 8, !tbaa !10
  store i64 %4, ptr %10, align 8, !tbaa !10
  %15 = load i32, ptr %8, align 4, !tbaa !14
  %16 = icmp uge i32 %15, 5
  %17 = xor i1 %16, true
  %18 = xor i1 %17, true
  %19 = zext i1 %18 to i32
  %20 = sext i32 %19 to i64
  %21 = call i64 @llvm.expect.i64(i64 %20, i64 0)
  %22 = icmp ne i64 %21, 0
  br i1 %22, label %23, label %24

23:                                               ; preds = %5
  br label %94

24:                                               ; preds = %5
  call void @llvm.lifetime.start.p0(i64 8, ptr %11) #15
  %25 = load ptr, ptr %6, align 8, !tbaa !12
  %26 = getelementptr inbounds nuw %struct.redisDb, ptr %25, i32 0, i32 0
  %27 = load ptr, ptr %26, align 8, !tbaa !16
  %28 = load i32, ptr %7, align 4, !tbaa !14
  %29 = call ptr @kvstoreGetDictMetadata(ptr noundef %27, i32 noundef %28)
  store ptr %29, ptr %11, align 8, !tbaa !22
  call void @llvm.lifetime.start.p0(i64 8, ptr %12) #15
  %30 = load ptr, ptr %6, align 8, !tbaa !12
  %31 = getelementptr inbounds nuw %struct.redisDb, ptr %30, i32 0, i32 0
  %32 = load ptr, ptr %31, align 8, !tbaa !16
  %33 = call ptr @kvstoreGetMetadata(ptr noundef %32)
  store ptr %33, ptr %12, align 8, !tbaa !22
  %34 = load i64, ptr %9, align 8, !tbaa !10
  %35 = icmp ne i64 %34, 0
  br i1 %35, label %36, label %63

36:                                               ; preds = %24
  call void @llvm.lifetime.start.p0(i64 4, ptr %13) #15
  %37 = load i64, ptr %9, align 8, !tbaa !10
  %38 = call i32 @log2ceil(i64 noundef %37)
  store i32 %38, ptr %13, align 4, !tbaa !14
  %39 = load ptr, ptr %11, align 8, !tbaa !22
  %40 = icmp ne ptr %39, null
  br i1 %40, label %41, label %52

41:                                               ; preds = %36
  %42 = load ptr, ptr %11, align 8, !tbaa !22
  %43 = getelementptr inbounds nuw %struct.kvstoreDictMetadata, ptr %42, i32 0, i32 0
  %44 = load i32, ptr %8, align 4, !tbaa !14
  %45 = zext i32 %44 to i64
  %46 = getelementptr inbounds nuw [5 x [48 x i64]], ptr %43, i64 0, i64 %45
  %47 = load i32, ptr %13, align 4, !tbaa !14
  %48 = sext i32 %47 to i64
  %49 = getelementptr inbounds [48 x i64], ptr %46, i64 0, i64 %48
  %50 = load i64, ptr %49, align 8, !tbaa !10
  %51 = add i64 %50, -1
  store i64 %51, ptr %49, align 8, !tbaa !10
  br label %52

52:                                               ; preds = %41, %36
  %53 = load ptr, ptr %12, align 8, !tbaa !22
  %54 = getelementptr inbounds nuw %struct.kvstoreMetadata, ptr %53, i32 0, i32 0
  %55 = load i32, ptr %8, align 4, !tbaa !14
  %56 = zext i32 %55 to i64
  %57 = getelementptr inbounds nuw [5 x [48 x i64]], ptr %54, i64 0, i64 %56
  %58 = load i32, ptr %13, align 4, !tbaa !14
  %59 = sext i32 %58 to i64
  %60 = getelementptr inbounds [48 x i64], ptr %57, i64 0, i64 %59
  %61 = load i64, ptr %60, align 8, !tbaa !10
  %62 = add i64 %61, -1
  store i64 %62, ptr %60, align 8, !tbaa !10
  call void @llvm.lifetime.end.p0(i64 4, ptr %13) #15
  br label %63

63:                                               ; preds = %52, %24
  %64 = load i64, ptr %10, align 8, !tbaa !10
  %65 = icmp ne i64 %64, 0
  br i1 %65, label %66, label %93

66:                                               ; preds = %63
  call void @llvm.lifetime.start.p0(i64 4, ptr %14) #15
  %67 = load i64, ptr %10, align 8, !tbaa !10
  %68 = call i32 @log2ceil(i64 noundef %67)
  store i32 %68, ptr %14, align 4, !tbaa !14
  %69 = load ptr, ptr %11, align 8, !tbaa !22
  %70 = icmp ne ptr %69, null
  br i1 %70, label %71, label %82

71:                                               ; preds = %66
  %72 = load ptr, ptr %11, align 8, !tbaa !22
  %73 = getelementptr inbounds nuw %struct.kvstoreDictMetadata, ptr %72, i32 0, i32 0
  %74 = load i32, ptr %8, align 4, !tbaa !14
  %75 = zext i32 %74 to i64
  %76 = getelementptr inbounds nuw [5 x [48 x i64]], ptr %73, i64 0, i64 %75
  %77 = load i32, ptr %14, align 4, !tbaa !14
  %78 = sext i32 %77 to i64
  %79 = getelementptr inbounds [48 x i64], ptr %76, i64 0, i64 %78
  %80 = load i64, ptr %79, align 8, !tbaa !10
  %81 = add i64 %80, 1
  store i64 %81, ptr %79, align 8, !tbaa !10
  br label %82

82:                                               ; preds = %71, %66
  %83 = load ptr, ptr %12, align 8, !tbaa !22
  %84 = getelementptr inbounds nuw %struct.kvstoreMetadata, ptr %83, i32 0, i32 0
  %85 = load i32, ptr %8, align 4, !tbaa !14
  %86 = zext i32 %85 to i64
  %87 = getelementptr inbounds nuw [5 x [48 x i64]], ptr %84, i64 0, i64 %86
  %88 = load i32, ptr %14, align 4, !tbaa !14
  %89 = sext i32 %88 to i64
  %90 = getelementptr inbounds [48 x i64], ptr %87, i64 0, i64 %89
  %91 = load i64, ptr %90, align 8, !tbaa !10
  %92 = add i64 %91, 1
  store i64 %92, ptr %90, align 8, !tbaa !10
  call void @llvm.lifetime.end.p0(i64 4, ptr %14) #15
  br label %93

93:                                               ; preds = %82, %63
  call void @llvm.lifetime.end.p0(i64 8, ptr %12) #15
  call void @llvm.lifetime.end.p0(i64 8, ptr %11) #15
  br label %94

94:                                               ; preds = %93, %23
  ret void
}

; Function Attrs: nounwind uwtable
define dso_local i32 @getKeySlot(ptr noundef %0) #0 {
  %2 = alloca i32, align 4
  %3 = alloca ptr, align 8
  store ptr %0, ptr %3, align 8, !tbaa !78
  %4 = load ptr, ptr getelementptr inbounds nuw (%struct.redisServer, ptr @server, i32 0, i32 63), align 8, !tbaa !53
  %5 = icmp ne ptr %4, null
  br i1 %5, label %6, label %21

6:                                                ; preds = %1
  %7 = load ptr, ptr getelementptr inbounds nuw (%struct.redisServer, ptr @server, i32 0, i32 63), align 8, !tbaa !53
  %8 = getelementptr inbounds nuw %struct.client, ptr %7, i32 0, i32 35
  %9 = load i32, ptr %8, align 8, !tbaa !86
  %10 = icmp sge i32 %9, 0
  br i1 %10, label %11, label %21

11:                                               ; preds = %6
  %12 = load ptr, ptr getelementptr inbounds nuw (%struct.redisServer, ptr @server, i32 0, i32 63), align 8, !tbaa !53
  %13 = getelementptr inbounds nuw %struct.client, ptr %12, i32 0, i32 1
  %14 = load i64, ptr %13, align 8, !tbaa !54
  %15 = and i64 %14, 536870912
  %16 = icmp ne i64 %15, 0
  br i1 %16, label %17, label %21

17:                                               ; preds = %11
  %18 = load ptr, ptr getelementptr inbounds nuw (%struct.redisServer, ptr @server, i32 0, i32 63), align 8, !tbaa !53
  %19 = getelementptr inbounds nuw %struct.client, ptr %18, i32 0, i32 35
  %20 = load i32, ptr %19, align 8, !tbaa !86
  store i32 %20, ptr %2, align 4
  br label %24

21:                                               ; preds = %11, %6, %1
  %22 = load ptr, ptr %3, align 8, !tbaa !78
  %23 = call i32 @calculateKeySlot(ptr noundef %22)
  store i32 %23, ptr %2, align 4
  br label %24

24:                                               ; preds = %21, %17
  %25 = load i32, ptr %2, align 4
  ret i32 %25
}

; Function Attrs: nounwind uwtable
define internal ptr @dbAddInternal(ptr noundef %0, ptr noundef %1, ptr noundef %2, i32 noundef %3) #0 {
  %5 = alloca ptr, align 8
  %6 = alloca ptr, align 8
  %7 = alloca ptr, align 8
  %8 = alloca ptr, align 8
  %9 = alloca i32, align 4
  %10 = alloca ptr, align 8
  %11 = alloca i32, align 4
  %12 = alloca ptr, align 8
  %13 = alloca i32, align 4
  store ptr %0, ptr %6, align 8, !tbaa !12
  store ptr %1, ptr %7, align 8, !tbaa !5
  store ptr %2, ptr %8, align 8, !tbaa !5
  store i32 %3, ptr %9, align 4, !tbaa !14
  call void @llvm.lifetime.start.p0(i64 8, ptr %10) #15
  call void @llvm.lifetime.start.p0(i64 4, ptr %11) #15
  %14 = load ptr, ptr %7, align 8, !tbaa !5
  %15 = getelementptr inbounds nuw %struct.redisObject, ptr %14, i32 0, i32 2
  %16 = load ptr, ptr %15, align 8, !tbaa !25
  %17 = call i32 @getKeySlot(ptr noundef %16)
  store i32 %17, ptr %11, align 4, !tbaa !14
  call void @llvm.lifetime.start.p0(i64 8, ptr %12) #15
  %18 = load ptr, ptr %6, align 8, !tbaa !12
  %19 = getelementptr inbounds nuw %struct.redisDb, ptr %18, i32 0, i32 0
  %20 = load ptr, ptr %19, align 8, !tbaa !16
  %21 = load i32, ptr %11, align 4, !tbaa !14
  %22 = load ptr, ptr %7, align 8, !tbaa !5
  %23 = getelementptr inbounds nuw %struct.redisObject, ptr %22, i32 0, i32 2
  %24 = load ptr, ptr %23, align 8, !tbaa !25
  %25 = call ptr @kvstoreDictAddRaw(ptr noundef %20, i32 noundef %21, ptr noundef %24, ptr noundef %10)
  store ptr %25, ptr %12, align 8, !tbaa !27
  %26 = load i32, ptr %9, align 4, !tbaa !14
  %27 = icmp ne i32 %26, 0
  br i1 %27, label %28, label %37

28:                                               ; preds = %4
  %29 = load ptr, ptr %10, align 8, !tbaa !27
  %30 = icmp ne ptr %29, null
  br i1 %30, label %31, label %37

31:                                               ; preds = %28
  %32 = load ptr, ptr %6, align 8, !tbaa !12
  %33 = load ptr, ptr %7, align 8, !tbaa !5
  %34 = load ptr, ptr %8, align 8, !tbaa !5
  %35 = load ptr, ptr %10, align 8, !tbaa !27
  call void @dbSetValue(ptr noundef %32, ptr noundef %33, ptr noundef %34, i32 noundef 1, ptr noundef %35)
  %36 = load ptr, ptr %10, align 8, !tbaa !27
  store ptr %36, ptr %5, align 8
  store i32 1, ptr %13, align 4
  br label %84

37:                                               ; preds = %28, %4
  %38 = load ptr, ptr %12, align 8, !tbaa !27
  %39 = icmp ne ptr %38, null
  %40 = xor i1 %39, true
  %41 = xor i1 %40, true
  %42 = zext i1 %41 to i32
  %43 = sext i32 %42 to i64
  %44 = call i64 @llvm.expect.i64(i64 %43, i64 1)
  %45 = icmp ne i64 %44, 0
  br i1 %45, label %46, label %47

46:                                               ; preds = %37
  br label %50

47:                                               ; preds = %37
  %48 = load ptr, ptr %7, align 8, !tbaa !5
  call void @_serverAssertWithInfo(ptr noundef null, ptr noundef %48, ptr noundef @.str.73, ptr noundef @.str.2, i32 noundef 246)
  call void @abort() #16
  unreachable

49:                                               ; No predecessors!
  br label %50

50:                                               ; preds = %49, %46
  %51 = load ptr, ptr %6, align 8, !tbaa !12
  %52 = getelementptr inbounds nuw %struct.redisDb, ptr %51, i32 0, i32 0
  %53 = load ptr, ptr %52, align 8, !tbaa !16
  %54 = load i32, ptr %11, align 4, !tbaa !14
  %55 = load ptr, ptr %12, align 8, !tbaa !27
  %56 = load ptr, ptr %7, align 8, !tbaa !5
  %57 = getelementptr inbounds nuw %struct.redisObject, ptr %56, i32 0, i32 2
  %58 = load ptr, ptr %57, align 8, !tbaa !25
  %59 = call ptr @sdsdup(ptr noundef %58)
  call void @kvstoreDictSetKey(ptr noundef %53, i32 noundef %54, ptr noundef %55, ptr noundef %59)
  %60 = load ptr, ptr %8, align 8, !tbaa !5
  call void @initObjectLRUOrLFU(ptr noundef %60)
  %61 = load ptr, ptr %6, align 8, !tbaa !12
  %62 = getelementptr inbounds nuw %struct.redisDb, ptr %61, i32 0, i32 0
  %63 = load ptr, ptr %62, align 8, !tbaa !16
  %64 = load i32, ptr %11, align 4, !tbaa !14
  %65 = load ptr, ptr %12, align 8, !tbaa !27
  %66 = load ptr, ptr %8, align 8, !tbaa !5
  call void @kvstoreDictSetVal(ptr noundef %63, i32 noundef %64, ptr noundef %65, ptr noundef %66)
  %67 = load ptr, ptr %6, align 8, !tbaa !12
  %68 = load ptr, ptr %7, align 8, !tbaa !5
  %69 = load ptr, ptr %8, align 8, !tbaa !5
  %70 = load i32, ptr %69, align 8
  %71 = and i32 %70, 15
  call void @signalKeyAsReady(ptr noundef %67, ptr noundef %68, i32 noundef %71)
  %72 = load ptr, ptr %7, align 8, !tbaa !5
  %73 = load ptr, ptr %6, align 8, !tbaa !12
  %74 = getelementptr inbounds nuw %struct.redisDb, ptr %73, i32 0, i32 7
  %75 = load i32, ptr %74, align 8, !tbaa !73
  call void @notifyKeyspaceEvent(i32 noundef 16384, ptr noundef @.str.74, ptr noundef %72, i32 noundef %75)
  %76 = load ptr, ptr %6, align 8, !tbaa !12
  %77 = load i32, ptr %11, align 4, !tbaa !14
  %78 = load ptr, ptr %8, align 8, !tbaa !5
  %79 = load i32, ptr %78, align 8
  %80 = and i32 %79, 15
  %81 = load ptr, ptr %8, align 8, !tbaa !5
  %82 = call i64 @getObjectLength(ptr noundef %81)
  call void @updateKeysizesHist(ptr noundef %76, i32 noundef %77, i32 noundef %80, i64 noundef 0, i64 noundef %82)
  %83 = load ptr, ptr %12, align 8, !tbaa !27
  store ptr %83, ptr %5, align 8
  store i32 1, ptr %13, align 4
  br label %84

84:                                               ; preds = %50, %31
  call void @llvm.lifetime.end.p0(i64 8, ptr %12) #15
  call void @llvm.lifetime.end.p0(i64 4, ptr %11) #15
  call void @llvm.lifetime.end.p0(i64 8, ptr %10) #15
  %85 = load ptr, ptr %5, align 8
  ret ptr %85
}