; Function Attrs: nounwind uwtable
define internal fastcc ptr @dbAddInternal(ptr noundef %0, ptr noundef %1, ptr noundef %2, i32 noundef range(i32 0, 2) %3) unnamed_addr #0 {
  %5 = alloca ptr, align 8
  call void @llvm.lifetime.start.p0(i64 8, ptr nonnull %5) #20
  %6 = getelementptr inbounds nuw i8, ptr %1, i64 8
  %7 = load ptr, ptr %6, align 8, !tbaa !18
  %8 = load ptr, ptr getelementptr inbounds nuw (i8, ptr @server, i64 1480), align 8, !tbaa !20
  %.not.i = icmp eq ptr %8, null
  br i1 %.not.i, label %17, label %9

9:                                                ; preds = %4
  %10 = getelementptr inbounds nuw i8, ptr %8, i64 232
  %11 = load i32, ptr %10, align 8, !tbaa !44
  %12 = icmp sgt i32 %11, -1
  br i1 %12, label %13, label %17

13:                                               ; preds = %9
  %14 = getelementptr inbounds nuw i8, ptr %8, i64 8
  %15 = load i64, ptr %14, align 8, !tbaa !55
  %16 = and i64 %15, 536870912
  %.not3.i = icmp eq i64 %16, 0
  br i1 %.not3.i, label %17, label %getKeySlot.exit

17:                                               ; preds = %13, %9, %4
  %18 = tail call i32 @calculateKeySlot(ptr noundef %7)
  %.pre = load ptr, ptr %6, align 8, !tbaa !18
  br label %getKeySlot.exit

getKeySlot.exit:                                  ; preds = %13, %17
  %19 = phi ptr [ %.pre, %17 ], [ %7, %13 ]
  %.0.i = phi i32 [ %18, %17 ], [ %11, %13 ]
  %20 = load ptr, ptr %0, align 8, !tbaa !6
  %21 = call ptr @kvstoreDictAddRaw(ptr noundef %20, i32 noundef %.0.i, ptr noundef %19, ptr noundef nonnull %5) #20
  %22 = icmp ne i32 %3, 0
  %23 = load ptr, ptr %5, align 8
  %24 = icmp ne ptr %23, null
  %or.cond = select i1 %22, i1 %24, i1 false
  br i1 %or.cond, label %25, label %27

25:                                               ; preds = %getKeySlot.exit
  call fastcc void @dbSetValue(ptr noundef nonnull %0, ptr noundef nonnull %1, ptr noundef %2, i32 noundef 1, ptr noundef nonnull %23)
  %26 = load ptr, ptr %5, align 8, !tbaa !69
  br label %updateKeysizesHist.exit

27:                                               ; preds = %getKeySlot.exit
  %.not = icmp eq ptr %21, null
  br i1 %.not, label %28, label %29, !prof !5

28:                                               ; preds = %27
  call void @_serverAssertWithInfo(ptr noundef null, ptr noundef nonnull %1, ptr noundef nonnull @.str.73, ptr noundef nonnull @.str.2, i32 noundef 246) #20
  call void @abort() #21
  unreachable

29:                                               ; preds = %27
  %30 = load ptr, ptr %0, align 8, !tbaa !6
  %31 = load ptr, ptr %6, align 8, !tbaa !18
  %32 = call ptr @sdsdup(ptr noundef %31) #20
  call void @kvstoreDictSetKey(ptr noundef %30, i32 noundef %.0.i, ptr noundef nonnull %21, ptr noundef %32) #20
  call void @initObjectLRUOrLFU(ptr noundef %2) #20
  %33 = load ptr, ptr %0, align 8, !tbaa !6
  call void @kvstoreDictSetVal(ptr noundef %33, i32 noundef %.0.i, ptr noundef nonnull %21, ptr noundef %2) #20
  %34 = load i32, ptr %2, align 8
  %35 = and i32 %34, 15
  call void @signalKeyAsReady(ptr noundef nonnull %0, ptr noundef nonnull %1, i32 noundef %35) #20
  %36 = getelementptr inbounds nuw i8, ptr %0, i64 56
  %37 = load i32, ptr %36, align 8, !tbaa !67
  call void @notifyKeyspaceEvent(i32 noundef 16384, ptr noundef nonnull @.str.74, ptr noundef nonnull %1, i32 noundef %37) #20
  %38 = load i32, ptr %2, align 8
  %39 = and i32 %38, 15
  %40 = call i64 @getObjectLength(ptr noundef nonnull %2) #20
  %41 = icmp samesign ugt i32 %39, 4
  br i1 %41, label %updateKeysizesHist.exit, label %42, !prof !5

42:                                               ; preds = %29
  %43 = load ptr, ptr %0, align 8, !tbaa !6
  %44 = call ptr @kvstoreGetDictMetadata(ptr noundef %43, i32 noundef %.0.i) #20
  %45 = load ptr, ptr %0, align 8, !tbaa !6
  %46 = call ptr @kvstoreGetMetadata(ptr noundef %45) #20
  %.not25.i = icmp eq i64 %40, 0
  br i1 %.not25.i, label %updateKeysizesHist.exit, label %47

47:                                               ; preds = %42
  %48 = call range(i64 0, 65) i64 @llvm.ctlz.i64(i64 range(i64 1, 0) %40, i1 true)
  %.pre28.i = xor i64 %48, 63
  %.not26.i = icmp eq ptr %44, null
  %.pre.i = zext nneg i32 %39 to i64
  br i1 %.not26.i, label %._crit_edge27.i, label %49

49:                                               ; preds = %47
  %50 = getelementptr inbounds nuw [5 x [48 x i64]], ptr %44, i64 0, i64 %.pre.i, i64 %.pre28.i
  %51 = load i64, ptr %50, align 8, !tbaa !17
  %52 = add i64 %51, 1
  store i64 %52, ptr %50, align 8, !tbaa !17
  br label %._crit_edge27.i

._crit_edge27.i:                                  ; preds = %49, %47
  %53 = getelementptr inbounds nuw [5 x [48 x i64]], ptr %46, i64 0, i64 %.pre.i, i64 %.pre28.i
  %54 = load i64, ptr %53, align 8, !tbaa !17
  %55 = add i64 %54, 1
  store i64 %55, ptr %53, align 8, !tbaa !17
  br label %updateKeysizesHist.exit

updateKeysizesHist.exit:                          ; preds = %._crit_edge27.i, %42, %29, %25
  %.0 = phi ptr [ %26, %25 ], [ %21, %29 ], [ %21, %42 ], [ %21, %._crit_edge27.i ]
  call void @llvm.lifetime.end.p0(i64 8, ptr nonnull %5) #20
  ret ptr %.0
}